
startup.bin: formato do arquivo binary
startup.bin
arquitetura: UNKNOWN!, sinalizações 0x00000000:

começar o endereço 0x00000000

Seções:
Idx Name          Tam.      VMA       LMA       File off  Algn
  0 .data         00000c5f  00000000  00000000  00000000  2**0
                  CONTENTS, ALLOC, LOAD, DATA
SYMBOL TABLE:
nenhum símbolo



Desmontagem da seção .data:

00000000 <.data>:
   0:	e59ff018 	ldr	pc, [pc, #24]	; 0x20
   4:	e59ff018 	ldr	pc, [pc, #24]	; 0x24
   8:	e59ff018 	ldr	pc, [pc, #24]	; 0x28
   c:	e59ff018 	ldr	pc, [pc, #24]	; 0x2c
  10:	e59ff018 	ldr	pc, [pc, #24]	; 0x30
  14:	e1a00000 	nop			; (mov r0, r0)
  18:	e59ff018 	ldr	pc, [pc, #24]	; 0x38
  1c:	e59ff018 	ldr	pc, [pc, #24]	; 0x3c
  20:	80000040 	andhi	r0, r0, r0, asr #32
  24:	4030ce24 	eorsmi	ip, r0, r4, lsr #28
  28:	4030ce28 	eorsmi	ip, r0, r8, lsr #28
  2c:	4030ce2c 	eorsmi	ip, r0, ip, lsr #28
  30:	4030ce30 	eorsmi	ip, r0, r0, lsr lr
  34:	e1a00000 	nop			; (mov r0, r0)
  38:	4030ce38 	eorsmi	ip, r0, r8, lsr lr
  3c:	4030ce3c 	eorsmi	ip, r0, ip, lsr lr
  40:	eb000182 	bl	0x650
  44:	e10f0000 	mrs	r0, CPSR
  48:	e3c0001f 	bic	r0, r0, #31
  4c:	e3800013 	orr	r0, r0, #19
  50:	e38000c0 	orr	r0, r0, #192	; 0xc0
  54:	e129f000 	msr	CPSR_fc, r0
  58:	e3a000d3 	mov	r0, #211	; 0xd3
  5c:	e121f000 	msr	CPSR_c, r0
  60:	e59fd0e8 	ldr	sp, [pc, #232]	; 0x150
  64:	e3a000d2 	mov	r0, #210	; 0xd2
  68:	e121f000 	msr	CPSR_c, r0
  6c:	e59fd0e0 	ldr	sp, [pc, #224]	; 0x154
  70:	e3a000d1 	mov	r0, #209	; 0xd1
  74:	e121f000 	msr	CPSR_c, r0
  78:	e59fd0d8 	ldr	sp, [pc, #216]	; 0x158
  7c:	e3a000db 	mov	r0, #219	; 0xdb
  80:	e121f000 	msr	CPSR_c, r0
  84:	e59fd0d0 	ldr	sp, [pc, #208]	; 0x15c
  88:	e3a000d7 	mov	r0, #215	; 0xd7
  8c:	e121f000 	msr	CPSR_c, r0
  90:	e59fd0c8 	ldr	sp, [pc, #200]	; 0x160
  94:	e3a000df 	mov	r0, #223	; 0xdf
  98:	e121f000 	msr	CPSR_c, r0
  9c:	e59fd0c0 	ldr	sp, [pc, #192]	; 0x164
  a0:	e3a00010 	mov	r0, #16
  a4:	e121f000 	msr	CPSR_c, r0
  a8:	e59fd0b8 	ldr	sp, [pc, #184]	; 0x168
  ac:	e59f00b8 	ldr	r0, [pc, #184]	; 0x16c
  b0:	e59f10b8 	ldr	r1, [pc, #184]	; 0x170
  b4:	e5801000 	str	r1, [r0]
  b8:	eb00016c 	bl	0x670
  bc:	eb00014f 	bl	0x600
  c0:	eb000182 	bl	0x6d0
  c4:	eb000031 	bl	0x190
  c8:	e10f0000 	mrs	r0, CPSR
  cc:	e3c00080 	bic	r0, r0, #128	; 0x80
  d0:	e129f000 	msr	CPSR_fc, r0
  d4:	e59f0098 	ldr	r0, [pc, #152]	; 0x174
  d8:	eb000108 	bl	0x500
  dc:	eb000056 	bl	0x23c
  e0:	eafffffd 	b	0xdc
  e4:	e92d480f 	push	{r0, r1, r2, r3, fp, lr}
  e8:	e14fb000 	mrs	fp, SPSR
  ec:	e59f0084 	ldr	r0, [pc, #132]	; 0x178
  f0:	e5901040 	ldr	r1, [r0, #64]	; 0x40
  f4:	e201107f 	and	r1, r1, #127	; 0x7f
  f8:	e3510048 	cmp	r1, #72	; 0x48
  fc:	0b000056 	bleq	0x25c
 100:	e59f0070 	ldr	r0, [pc, #112]	; 0x178
 104:	e3a01001 	mov	r1, #1
 108:	e5801048 	str	r1, [r0, #72]	; 0x48
 10c:	f57ff04f 	dsb	sy
 110:	e169f00b 	msr	SPSR_fc, fp
 114:	e8fd880f 	ldm	sp!, {r0, r1, r2, r3, fp, pc}^
 118:	eafffffe 	b	0x118
 11c:	eafffffe 	b	0x11c
 120:	e92d5fff 	push	{r0, r1, r2, r3, r4, r5, r6, r7, r8, r9, sl, fp, ip, lr}
 124:	e51e0004 	ldr	r0, [lr, #-4]
 128:	e3c014ff 	bic	r1, r0, #-16777216	; 0xff000000
 12c:	e59f0048 	ldr	r0, [pc, #72]	; 0x17c
 130:	eb0000f2 	bl	0x500
 134:	e1a00001 	mov	r0, r1
 138:	eb0000bf 	bl	0x43c
 13c:	e59f003c 	ldr	r0, [pc, #60]	; 0x180
 140:	eb0000ee 	bl	0x500
 144:	e8fd9fff 	ldm	sp!, {r0, r1, r2, r3, r4, r5, r6, r7, r8, r9, sl, fp, ip, pc}^
 148:	eafffffe 	b	0x148
 14c:	eafffffe 	b	0x14c
 150:	80001200 	andhi	r1, r0, r0, lsl #4
 154:	80001300 	andhi	r1, r0, r0, lsl #6
 158:	80001400 	andhi	r1, r0, r0, lsl #8
 15c:	80001000 	andhi	r1, r0, r0
 160:	80001100 	andhi	r1, r0, r0, lsl #2
 164:	80000f00 	andhi	r0, r0, r0, lsl #30
 168:	80001500 	andhi	r1, r0, r0, lsl #10
 16c:	80000038 	andhi	r0, r0, r8, lsr r0
 170:	800000e4 	andhi	r0, r0, r4, ror #1
 174:	80000a60 	andhi	r0, r0, r0, ror #20
 178:	48200000 	stmdami	r0!, {}	; <UNPREDICTABLE>
 17c:	80000ab2 			; <UNDEFINED> instruction: 0x80000ab2
 180:	80000b00 	andhi	r0, r0, r0, lsl #22
	...
 190:	e59f0120 	ldr	r0, [pc, #288]	; 0x2b8
 194:	e3a01002 	mov	r1, #2
 198:	e5801054 	str	r1, [r0, #84]	; 0x54
 19c:	e5901058 	ldr	r1, [r0, #88]	; 0x58
 1a0:	e3110001 	tst	r1, #1
 1a4:	0afffffc 	beq	0x19c
 1a8:	e3a01008 	mov	r1, #8
 1ac:	e5801054 	str	r1, [r0, #84]	; 0x54
 1b0:	e3a01083 	mov	r1, #131	; 0x83
 1b4:	e580100c 	str	r1, [r0, #12]
 1b8:	e3a0101a 	mov	r1, #26
 1bc:	e5801000 	str	r1, [r0]
 1c0:	e3a01010 	mov	r1, #16
 1c4:	e5801008 	str	r1, [r0, #8]
 1c8:	e3a01057 	mov	r1, #87	; 0x57
 1cc:	e5801008 	str	r1, [r0, #8]
 1d0:	e3a01000 	mov	r1, #0
 1d4:	e5801008 	str	r1, [r0, #8]
 1d8:	e3a01000 	mov	r1, #0
 1dc:	e5801020 	str	r1, [r0, #32]
 1e0:	e590100c 	ldr	r1, [r0, #12]
 1e4:	e3c11080 	bic	r1, r1, #128	; 0x80
 1e8:	e580100c 	str	r1, [r0, #12]
 1ec:	e3a010c8 	mov	r1, #200	; 0xc8
 1f0:	e5801040 	str	r1, [r0, #64]	; 0x40
 1f4:	e3a01001 	mov	r1, #1
 1f8:	e5801004 	str	r1, [r0, #4]
 1fc:	e59f00b8 	ldr	r0, [pc, #184]	; 0x2bc
 200:	e3a01000 	mov	r1, #0
 204:	e5c01048 	strb	r1, [r0, #72]	; 0x48
 208:	e59f00b0 	ldr	r0, [pc, #176]	; 0x2c0
 20c:	e3a01c01 	mov	r1, #256	; 0x100
 210:	e58010c8 	str	r1, [r0, #200]	; 0xc8
 214:	e3a00000 	mov	r0, #0
 218:	e12fff1e 	bx	lr
 21c:	e92d4006 	push	{r1, r2, lr}
 220:	e59f1090 	ldr	r1, [pc, #144]	; 0x2b8
 224:	e5912014 	ldr	r2, [r1, #20]
 228:	e2022020 	and	r2, r2, #32
 22c:	e3520000 	cmp	r2, #0
 230:	0afffffb 	beq	0x224
 234:	e5c10000 	strb	r0, [r1]
 238:	e8bd8006 	pop	{r1, r2, pc}
 23c:	e92d4006 	push	{r1, r2, lr}
 240:	e59f1070 	ldr	r1, [pc, #112]	; 0x2b8
 244:	e5912014 	ldr	r2, [r1, #20]
 248:	e2022001 	and	r2, r2, #1
 24c:	e3520000 	cmp	r2, #0
 250:	0afffffb 	beq	0x244
 254:	e5d10000 	ldrb	r0, [r1]
 258:	e8bd8006 	pop	{r1, r2, pc}
 25c:	e92d5fff 	push	{r0, r1, r2, r3, r4, r5, r6, r7, r8, r9, sl, fp, ip, lr}
 260:	e59f5050 	ldr	r5, [pc, #80]	; 0x2b8
 264:	e5951008 	ldr	r1, [r5, #8]
 268:	e3a02000 	mov	r2, #0
 26c:	e5852004 	str	r2, [r5, #4]
 270:	e201103e 	and	r1, r1, #62	; 0x3e
 274:	e3510004 	cmp	r1, #4
 278:	1a00000b 	bne	0x2ac
 27c:	e5d50000 	ldrb	r0, [r5]
 280:	ebffffe5 	bl	0x21c
 284:	e350000d 	cmp	r0, #13
 288:	0b000144 	bleq	0x7a0
 28c:	0a000006 	beq	0x2ac
 290:	e59f102c 	ldr	r1, [pc, #44]	; 0x2c4
 294:	e5914000 	ldr	r4, [r1]
 298:	e59f3028 	ldr	r3, [pc, #40]	; 0x2c8
 29c:	e7c30004 	strb	r0, [r3, r4]
 2a0:	e2844001 	add	r4, r4, #1
 2a4:	e5814000 	str	r4, [r1]
 2a8:	eaffffff 	b	0x2ac
 2ac:	e3a02001 	mov	r2, #1
 2b0:	e5852004 	str	r2, [r5, #4]
 2b4:	e8bd9fff 	pop	{r0, r1, r2, r3, r4, r5, r6, r7, r8, r9, sl, fp, ip, pc}
 2b8:	44e09000 	strbtmi	r9, [r0], #0
 2bc:	48200100 	stmdami	r0!, {r8}
 2c0:	48200000 	stmdami	r0!, {}	; <UNPREDICTABLE>
 2c4:	80000c50 	andhi	r0, r0, r0, asr ip
 2c8:	80000c10 	andhi	r0, r0, r0, lsl ip
 2cc:	00000000 	andeq	r0, r0, r0
 2d0:	e92d4007 	push	{r0, r1, r2, lr}
 2d4:	e3a02000 	mov	r2, #0
 2d8:	e3a0100a 	mov	r1, #10
 2dc:	e1500001 	cmp	r0, r1
 2e0:	ba000003 	blt	0x2f4
 2e4:	eb00000a 	bl	0x314
 2e8:	e92d0002 	stmfd	sp!, {r1}
 2ec:	e2822001 	add	r2, r2, #1
 2f0:	eafffff8 	b	0x2d8
 2f4:	e2800030 	add	r0, r0, #48	; 0x30
 2f8:	ebffffc7 	bl	0x21c
 2fc:	e3520000 	cmp	r2, #0
 300:	da000002 	ble	0x310
 304:	e2422001 	sub	r2, r2, #1
 308:	e8bd0001 	ldmfd	sp!, {r0}
 30c:	eafffff8 	b	0x2f4
 310:	e8bd8007 	pop	{r0, r1, r2, pc}
 314:	e92d401c 	push	{r2, r3, r4, lr}
 318:	e1a02000 	mov	r2, r0
 31c:	e1a03001 	mov	r3, r1
 320:	e3a00000 	mov	r0, #0
 324:	e1520003 	cmp	r2, r3
 328:	ba000002 	blt	0x338
 32c:	e0422003 	sub	r2, r2, r3
 330:	e2800001 	add	r0, r0, #1
 334:	eafffffa 	b	0x324
 338:	e1a01002 	mov	r1, r2
 33c:	e8bd801c 	pop	{r2, r3, r4, pc}
 340:	e92d4007 	push	{r0, r1, r2, lr}
 344:	e0811000 	add	r1, r1, r0
 348:	e3a02000 	mov	r2, #0
 34c:	e1500001 	cmp	r0, r1
 350:	b4802004 	strlt	r2, [r0], #4
 354:	bafffffc 	blt	0x34c
 358:	e8bd8007 	pop	{r0, r1, r2, pc}
 35c:	e92d400f 	push	{r0, r1, r2, r3, lr}
 360:	e1a02000 	mov	r2, r0
 364:	e1a03001 	mov	r3, r1
 368:	e59f025c 	ldr	r0, [pc, #604]	; 0x5cc
 36c:	e3a01002 	mov	r1, #2
 370:	eb00006b 	bl	0x524
 374:	e1a00002 	mov	r0, r2
 378:	eb00002f 	bl	0x43c
 37c:	e59f024c 	ldr	r0, [pc, #588]	; 0x5d0
 380:	e3a01005 	mov	r1, #5
 384:	eb000066 	bl	0x524
 388:	e59f023c 	ldr	r0, [pc, #572]	; 0x5cc
 38c:	e3a01002 	mov	r1, #2
 390:	eb000063 	bl	0x524
 394:	e4920004 	ldr	r0, [r2], #4
 398:	eb000027 	bl	0x43c
 39c:	e59f0230 	ldr	r0, [pc, #560]	; 0x5d4
 3a0:	e3a01002 	mov	r1, #2
 3a4:	eb00005e 	bl	0x524
 3a8:	e2533004 	subs	r3, r3, #4
 3ac:	1affffed 	bne	0x368
 3b0:	e8bd800f 	pop	{r0, r1, r2, r3, pc}
 3b4:	e3e0120f 	mvn	r1, #-268435456	; 0xf0000000
 3b8:	e2411001 	sub	r1, r1, #1
 3bc:	e3510000 	cmp	r1, #0
 3c0:	1afffffc 	bne	0x3b8
 3c4:	e12fff1e 	bx	lr
 3c8:	e92d401f 	push	{r0, r1, r2, r3, r4, lr}
 3cc:	e59f0204 	ldr	r0, [pc, #516]	; 0x5d8
 3d0:	e5d01000 	ldrb	r1, [r0]
 3d4:	e5d02000 	ldrb	r2, [r0]
 3d8:	e1520001 	cmp	r2, r1
 3dc:	0afffffc 	beq	0x3d4
 3e0:	e8bd801f 	pop	{r0, r1, r2, r3, r4, pc}
 3e4:	e92d4006 	push	{r1, r2, lr}
 3e8:	e2800030 	add	r0, r0, #48	; 0x30
 3ec:	e8bd8006 	pop	{r1, r2, pc}
 3f0:	e92d401e 	push	{r1, r2, r3, r4, lr}
 3f4:	e2400030 	sub	r0, r0, #48	; 0x30
 3f8:	e8bd801e 	pop	{r1, r2, r3, r4, pc}
 3fc:	e92d401e 	push	{r1, r2, r3, r4, lr}
 400:	e2400001 	sub	r0, r0, #1
 404:	e3c000f0 	bic	r0, r0, #240	; 0xf0
 408:	e280000a 	add	r0, r0, #10
 40c:	e8bd801e 	pop	{r1, r2, r3, r4, pc}
 410:	e92d401e 	push	{r1, r2, r3, r4, lr}
 414:	e1a01220 	lsr	r1, r0, #4
 418:	e3510003 	cmp	r1, #3
 41c:	0bfffff3 	bleq	0x3f0
 420:	e3510004 	cmp	r1, #4
 424:	0bfffff4 	bleq	0x3fc
 428:	e8bd801e 	pop	{r1, r2, r3, r4, pc}
 42c:	e92d4007 	push	{r0, r1, r2, lr}
 430:	e59f11a4 	ldr	r1, [pc, #420]	; 0x5dc
 434:	e7d10000 	ldrb	r0, [r1, r0]
 438:	e8bd8007 	pop	{r0, r1, r2, pc}
 43c:	e92d400f 	push	{r0, r1, r2, r3, lr}
 440:	e1a01000 	mov	r1, r0
 444:	e3a00000 	mov	r0, #0
 448:	e3a0301c 	mov	r3, #28
 44c:	e59f2188 	ldr	r2, [pc, #392]	; 0x5dc
 450:	e1a00331 	lsr	r0, r1, r3
 454:	e200000f 	and	r0, r0, #15
 458:	e7d20000 	ldrb	r0, [r2, r0]
 45c:	ebffff6e 	bl	0x21c
 460:	e2533004 	subs	r3, r3, #4
 464:	1afffff9 	bne	0x450
 468:	e1a00001 	mov	r0, r1
 46c:	e200000f 	and	r0, r0, #15
 470:	e7d20000 	ldrb	r0, [r2, r0]
 474:	ebffff68 	bl	0x21c
 478:	e8bd800f 	pop	{r0, r1, r2, r3, pc}
 47c:	e92d400e 	push	{r1, r2, r3, lr}
 480:	e1a02000 	mov	r2, r0
 484:	e3a00000 	mov	r0, #0
 488:	e3510000 	cmp	r1, #0
 48c:	0a000003 	beq	0x4a0
 490:	e4d23001 	ldrb	r3, [r2], #1
 494:	e0800003 	add	r0, r0, r3
 498:	e2411001 	sub	r1, r1, #1
 49c:	eafffff9 	b	0x488
 4a0:	e8bd800e 	pop	{r1, r2, r3, pc}
 4a4:	e92d401e 	push	{r1, r2, r3, r4, lr}
 4a8:	e1a04001 	mov	r4, r1
 4ac:	e1a01002 	mov	r1, r2
 4b0:	ebfffff1 	bl	0x47c
 4b4:	e1a03000 	mov	r3, r0
 4b8:	e1a00004 	mov	r0, r4
 4bc:	ebffffee 	bl	0x47c
 4c0:	e0430000 	sub	r0, r3, r0
 4c4:	e8bd801e 	pop	{r1, r2, r3, r4, pc}
 4c8:	e92d407e 	push	{r1, r2, r3, r4, r5, r6, lr}
 4cc:	e1a03000 	mov	r3, r0
 4d0:	e1a04001 	mov	r4, r1
 4d4:	e1a00002 	mov	r0, r2
 4d8:	e3520000 	cmp	r2, #0
 4dc:	0a000006 	beq	0x4fc
 4e0:	e4d35001 	ldrb	r5, [r3], #1
 4e4:	e4d46001 	ldrb	r6, [r4], #1
 4e8:	e1550006 	cmp	r5, r6
 4ec:	1a000002 	bne	0x4fc
 4f0:	e2400001 	sub	r0, r0, #1
 4f4:	e2422001 	sub	r2, r2, #1
 4f8:	eafffff6 	b	0x4d8
 4fc:	e8bd807e 	pop	{r1, r2, r3, r4, r5, r6, pc}
 500:	e92d4007 	push	{r0, r1, r2, lr}
 504:	e1a01000 	mov	r1, r0
 508:	e4d10001 	ldrb	r0, [r1], #1
 50c:	e20000ff 	and	r0, r0, #255	; 0xff
 510:	e3500000 	cmp	r0, #0
 514:	0a000001 	beq	0x520
 518:	ebffff3f 	bl	0x21c
 51c:	eafffff9 	b	0x508
 520:	e8bd8007 	pop	{r0, r1, r2, pc}
 524:	e92d4007 	push	{r0, r1, r2, lr}
 528:	e1a02000 	mov	r2, r0
 52c:	e4d20001 	ldrb	r0, [r2], #1
 530:	ebffff39 	bl	0x21c
 534:	e2511001 	subs	r1, r1, #1
 538:	0afffff8 	beq	0x520
 53c:	eafffffa 	b	0x52c
 540:	e8bd8007 	pop	{r0, r1, r2, pc}
 544:	e59fc094 	ldr	ip, [pc, #148]	; 0x5e0
 548:	e8ac4ff0 	stmia	ip!, {r4, r5, r6, r7, r8, r9, sl, fp, lr}
 54c:	e1a04000 	mov	r4, r0
 550:	e3a05000 	mov	r5, #0
 554:	e4d40001 	ldrb	r0, [r4], #1
 558:	e3500025 	cmp	r0, #37	; 0x25
 55c:	0a000003 	beq	0x570
 560:	e3500000 	cmp	r0, #0
 564:	0a000017 	beq	0x5c8
 568:	ebffff2b 	bl	0x21c
 56c:	eafffff8 	b	0x554
 570:	e2855001 	add	r5, r5, #1
 574:	e3550001 	cmp	r5, #1
 578:	01a00001 	moveq	r0, r1
 57c:	0a000006 	beq	0x59c
 580:	e3550002 	cmp	r5, #2
 584:	01a00002 	moveq	r0, r2
 588:	0a000003 	beq	0x59c
 58c:	e3550003 	cmp	r5, #3
 590:	01a00003 	moveq	r0, r3
 594:	0a000000 	beq	0x59c
 598:	e8bd0001 	ldmfd	sp!, {r0}
 59c:	e4d46001 	ldrb	r6, [r4], #1
 5a0:	e3560073 	cmp	r6, #115	; 0x73
 5a4:	059f7038 	ldreq	r7, [pc, #56]	; 0x5e4
 5a8:	e3560064 	cmp	r6, #100	; 0x64
 5ac:	059f7034 	ldreq	r7, [pc, #52]	; 0x5e8
 5b0:	e3560063 	cmp	r6, #99	; 0x63
 5b4:	059f7030 	ldreq	r7, [pc, #48]	; 0x5ec
 5b8:	e3560078 	cmp	r6, #120	; 0x78
 5bc:	059f702c 	ldreq	r7, [pc, #44]	; 0x5f0
 5c0:	e12fff37 	blx	r7
 5c4:	eaffffe2 	b	0x554
 5c8:	e93c8ff0 	ldmdb	ip!, {r4, r5, r6, r7, r8, r9, sl, fp, pc}
 5cc:	80000afd 	strdhi	r0, [r0], -sp
 5d0:	80000b03 	andhi	r0, r0, r3, lsl #22
 5d4:	80000b00 	andhi	r0, r0, r0, lsl #22
 5d8:	44e3e000 	strbtmi	lr, [r3], #0
 5dc:	80000ad0 	ldrdhi	r0, [r0], -r0	; <UNPREDICTABLE>
 5e0:	80000c60 	andhi	r0, r0, r0, ror #24
 5e4:	80000500 	andhi	r0, r0, r0, lsl #10
 5e8:	800002d0 	ldrdhi	r0, [r0], -r0	; <UNPREDICTABLE>
 5ec:	8000021c 	andhi	r0, r0, ip, lsl r2
 5f0:	8000043c 	andhi	r0, r0, ip, lsr r4
	...
 600:	e92d4003 	push	{r0, r1, lr}
 604:	e59f002c 	ldr	r0, [pc, #44]	; 0x638
 608:	e59f102c 	ldr	r1, [pc, #44]	; 0x63c
 60c:	e5801048 	str	r1, [r0, #72]	; 0x48
 610:	eb000003 	bl	0x624
 614:	e59f1024 	ldr	r1, [pc, #36]	; 0x640
 618:	e5801048 	str	r1, [r0, #72]	; 0x48
 61c:	eb000000 	bl	0x624
 620:	e8bd8003 	pop	{r0, r1, pc}
 624:	e5901034 	ldr	r1, [r0, #52]	; 0x34
 628:	e2011010 	and	r1, r1, #16
 62c:	e3510000 	cmp	r1, #0
 630:	1afffffb 	bne	0x624
 634:	e12fff1e 	bx	lr
 638:	44e35000 	strbtmi	r5, [r3], #0
 63c:	0000aaaa 	andeq	sl, r0, sl, lsr #21
 640:	00005555 	andeq	r5, r0, r5, asr r5
	...
 650:	e92d4007 	push	{r0, r1, r2, lr}
 654:	ee110f10 	mrc	15, 0, r0, cr1, cr0, {0}
 658:	e3c00a02 	bic	r0, r0, #8192	; 0x2000
 65c:	ee010f10 	mcr	15, 0, r0, cr1, cr0, {0}
 660:	e59f0004 	ldr	r0, [pc, #4]	; 0x66c
 664:	ee0c0f10 	mcr	15, 0, r0, cr12, cr0, {0}
 668:	e8bd8007 	pop	{r0, r1, r2, pc}
 66c:	80000000 	andhi	r0, r0, r0
 670:	e59f0038 	ldr	r0, [pc, #56]	; 0x6b0
 674:	e59f1038 	ldr	r1, [pc, #56]	; 0x6b4
 678:	e5801000 	str	r1, [r0]
 67c:	e59f0034 	ldr	r0, [pc, #52]	; 0x6b8
 680:	e5901000 	ldr	r1, [r0]
 684:	e3c1161e 	bic	r1, r1, #31457280	; 0x1e00000
 688:	e5801000 	str	r1, [r0]
 68c:	e12fff1e 	bx	lr
 690:	e59f0024 	ldr	r0, [pc, #36]	; 0x6bc
 694:	e3a01602 	mov	r1, #2097152	; 0x200000
 698:	e5801000 	str	r1, [r0]
 69c:	e12fff1e 	bx	lr
 6a0:	e59f0018 	ldr	r0, [pc, #24]	; 0x6c0
 6a4:	e3a01602 	mov	r1, #2097152	; 0x200000
 6a8:	e5801000 	str	r1, [r0]
 6ac:	e12fff1e 	bx	lr
 6b0:	44e000ac 	strbtmi	r0, [r0], #172	; 0xac
 6b4:	00040002 	andeq	r0, r4, r2
 6b8:	4804c134 	stmdami	r4, {r2, r4, r5, r8, lr, pc}
 6bc:	4804c194 	stmdami	r4, {r2, r4, r7, r8, lr, pc}
 6c0:	4804c190 	stmdami	r4, {r4, r7, r8, lr, pc}
	...
 6d0:	e92d4003 	push	{r0, r1, lr}
 6d4:	e59f00ac 	ldr	r0, [pc, #172]	; 0x788
 6d8:	e3a01002 	mov	r1, #2
 6dc:	e5801000 	str	r1, [r0]
 6e0:	e59f00a4 	ldr	r0, [pc, #164]	; 0x78c
 6e4:	e5801000 	str	r1, [r0]
 6e8:	e59f00a0 	ldr	r0, [pc, #160]	; 0x790
 6ec:	e59f10a0 	ldr	r1, [pc, #160]	; 0x794
 6f0:	e580106c 	str	r1, [r0, #108]	; 0x6c
 6f4:	e59f109c 	ldr	r1, [pc, #156]	; 0x798
 6f8:	e5801070 	str	r1, [r0, #112]	; 0x70
 6fc:	e3a01048 	mov	r1, #72	; 0x48
 700:	e5801054 	str	r1, [r0, #84]	; 0x54
 704:	e59f0084 	ldr	r0, [pc, #132]	; 0x790
 708:	e3a01001 	mov	r1, #1
 70c:	e5801040 	str	r1, [r0, #64]	; 0x40
 710:	e5901044 	ldr	r1, [r0, #68]	; 0x44
 714:	e2011001 	and	r1, r1, #1
 718:	e3510000 	cmp	r1, #0
 71c:	1afffffb 	bne	0x710
 720:	e8bd8003 	pop	{r0, r1, pc}
 724:	e92d4007 	push	{r0, r1, r2, lr}
 728:	e1a02000 	mov	r2, r0
 72c:	e2020070 	and	r0, r2, #112	; 0x70
 730:	e1a00220 	lsr	r0, r0, #4
 734:	ebffff2a 	bl	0x3e4
 738:	ebfffeb7 	bl	0x21c
 73c:	e202000f 	and	r0, r2, #15
 740:	e2800030 	add	r0, r0, #48	; 0x30
 744:	ebfffeb4 	bl	0x21c
 748:	e8bd8007 	pop	{r0, r1, r2, pc}
 74c:	e92d4007 	push	{r0, r1, r2, lr}
 750:	e59f1038 	ldr	r1, [pc, #56]	; 0x790
 754:	e5910008 	ldr	r0, [r1, #8]
 758:	ebfffff1 	bl	0x724
 75c:	e3a0003a 	mov	r0, #58	; 0x3a
 760:	ebfffead 	bl	0x21c
 764:	e5910004 	ldr	r0, [r1, #4]
 768:	ebffffed 	bl	0x724
 76c:	e3a0003a 	mov	r0, #58	; 0x3a
 770:	ebfffea9 	bl	0x21c
 774:	e5910000 	ldr	r0, [r1]
 778:	ebffffe9 	bl	0x724
 77c:	e59f0018 	ldr	r0, [pc, #24]	; 0x79c
 780:	ebffff5e 	bl	0x500
 784:	e8bd8007 	pop	{r0, r1, r2, pc}
 788:	44e00804 	strbtmi	r0, [r0], #2052	; 0x804
 78c:	44e00800 	strbtmi	r0, [r0], #2048	; 0x800
 790:	44e3e000 	strbtmi	lr, [r3], #0
 794:	83e70b13 	mvnhi	r0, #19456	; 0x4c00
 798:	95a4f1e0 	strls	pc, [r4, #480]!	; 0x1e0
 79c:	80000b30 	andhi	r0, r0, r0, lsr fp
 7a0:	e92d5fff 	push	{r0, r1, r2, r3, r4, r5, r6, r7, r8, r9, sl, fp, ip, lr}
 7a4:	e59f0270 	ldr	r0, [pc, #624]	; 0xa1c
 7a8:	ebffff54 	bl	0x500
 7ac:	e59f126c 	ldr	r1, [pc, #620]	; 0xa20
 7b0:	e59f026c 	ldr	r0, [pc, #620]	; 0xa24
 7b4:	e3a02008 	mov	r2, #8
 7b8:	ebffff42 	bl	0x4c8
 7bc:	e3500000 	cmp	r0, #0
 7c0:	0a000037 	beq	0x8a4
 7c4:	e59f025c 	ldr	r0, [pc, #604]	; 0xa28
 7c8:	e3a02006 	mov	r2, #6
 7cc:	ebffff3d 	bl	0x4c8
 7d0:	e3500000 	cmp	r0, #0
 7d4:	0a000067 	beq	0x978
 7d8:	e59f024c 	ldr	r0, [pc, #588]	; 0xa2c
 7dc:	e3a02009 	mov	r2, #9
 7e0:	ebffff38 	bl	0x4c8
 7e4:	e3500000 	cmp	r0, #0
 7e8:	0a000066 	beq	0x988
 7ec:	e59f023c 	ldr	r0, [pc, #572]	; 0xa30
 7f0:	e3a02007 	mov	r2, #7
 7f4:	ebffff33 	bl	0x4c8
 7f8:	e3500000 	cmp	r0, #0
 7fc:	0a000057 	beq	0x960
 800:	e59f022c 	ldr	r0, [pc, #556]	; 0xa34
 804:	ebffff26 	bl	0x4a4
 808:	e3500000 	cmp	r0, #0
 80c:	0b000050 	bleq	0x954
 810:	e59f0220 	ldr	r0, [pc, #544]	; 0xa38
 814:	e3a0200b 	mov	r2, #11
 818:	ebffff2a 	bl	0x4c8
 81c:	e3500000 	cmp	r0, #0
 820:	0a00000f 	beq	0x864
 824:	e59f0210 	ldr	r0, [pc, #528]	; 0xa3c
 828:	e3a02004 	mov	r2, #4
 82c:	ebffff25 	bl	0x4c8
 830:	e3500000 	cmp	r0, #0
 834:	0bffffc4 	bleq	0x74c
 838:	e59f0200 	ldr	r0, [pc, #512]	; 0xa40
 83c:	e3a02006 	mov	r2, #6
 840:	ebffff20 	bl	0x4c8
 844:	e3500000 	cmp	r0, #0
 848:	0b00005b 	bleq	0x9bc
 84c:	e59f11f0 	ldr	r1, [pc, #496]	; 0xa44
 850:	e3a02000 	mov	r2, #0
 854:	e5812000 	str	r2, [r1]
 858:	e59f01e8 	ldr	r0, [pc, #488]	; 0xa48
 85c:	ebffff27 	bl	0x500
 860:	e8bd9fff 	pop	{r0, r1, r2, r3, r4, r5, r6, r7, r8, r9, sl, fp, ip, pc}
 864:	e3a03000 	mov	r3, #0
 868:	e59f21dc 	ldr	r2, [pc, #476]	; 0xa4c
 86c:	e1a00003 	mov	r0, r3
 870:	ebfffe96 	bl	0x2d0
 874:	e1a01a83 	lsl	r1, r3, #21
 878:	e5821000 	str	r1, [r2]
 87c:	e2833001 	add	r3, r3, #1
 880:	ebfffed0 	bl	0x3c8
 884:	eb000002 	bl	0x894
 888:	e3530010 	cmp	r3, #16
 88c:	1afffff5 	bne	0x868
 890:	eaffffed 	b	0x84c
 894:	e59f01b4 	ldr	r0, [pc, #436]	; 0xa50
 898:	e3a0161e 	mov	r1, #31457280	; 0x1e00000
 89c:	e5801000 	str	r1, [r0]
 8a0:	eafffff8 	b	0x888
 8a4:	e92d000f 	push	{r0, r1, r2, r3}
 8a8:	e59f2170 	ldr	r2, [pc, #368]	; 0xa20
 8ac:	e2822009 	add	r2, r2, #9
 8b0:	e5d21000 	ldrb	r1, [r2]
 8b4:	e1a00001 	mov	r0, r1
 8b8:	ebfffecc 	bl	0x3f0
 8bc:	e1a01000 	mov	r1, r0
 8c0:	e5d20001 	ldrb	r0, [r2, #1]
 8c4:	ebfffec9 	bl	0x3f0
 8c8:	eb00000f 	bl	0x90c
 8cc:	e5d21003 	ldrb	r1, [r2, #3]
 8d0:	e1a00001 	mov	r0, r1
 8d4:	ebfffec5 	bl	0x3f0
 8d8:	e1a01000 	mov	r1, r0
 8dc:	e5d20004 	ldrb	r0, [r2, #4]
 8e0:	ebfffec2 	bl	0x3f0
 8e4:	eb00000e 	bl	0x924
 8e8:	e5d21006 	ldrb	r1, [r2, #6]
 8ec:	e1a00001 	mov	r0, r1
 8f0:	ebfffebe 	bl	0x3f0
 8f4:	e1a01000 	mov	r1, r0
 8f8:	e5d20007 	ldrb	r0, [r2, #7]
 8fc:	ebfffebb 	bl	0x3f0
 900:	eb00000d 	bl	0x93c
 904:	e8bd000f 	pop	{r0, r1, r2, r3}
 908:	eaffffcf 	b	0x84c
 90c:	e1a01201 	lsl	r1, r1, #4
 910:	e3c000f0 	bic	r0, r0, #240	; 0xf0
 914:	e1810000 	orr	r0, r1, r0
 918:	e59f1134 	ldr	r1, [pc, #308]	; 0xa54
 91c:	e5810008 	str	r0, [r1, #8]
 920:	e12fff1e 	bx	lr
 924:	e1a01201 	lsl	r1, r1, #4
 928:	e3c000f0 	bic	r0, r0, #240	; 0xf0
 92c:	e1810000 	orr	r0, r1, r0
 930:	e59f111c 	ldr	r1, [pc, #284]	; 0xa54
 934:	e5c10004 	strb	r0, [r1, #4]
 938:	e12fff1e 	bx	lr
 93c:	e1a01201 	lsl	r1, r1, #4
 940:	e3c000f0 	bic	r0, r0, #240	; 0xf0
 944:	e1810000 	orr	r0, r1, r0
 948:	e59f1104 	ldr	r1, [pc, #260]	; 0xa54
 94c:	e5810000 	str	r0, [r1]
 950:	e12fff1e 	bx	lr
 954:	e59f00fc 	ldr	r0, [pc, #252]	; 0xa58
 958:	ebfffee8 	bl	0x500
 95c:	eaffffba 	b	0x84c
 960:	e59f00e8 	ldr	r0, [pc, #232]	; 0xa50
 964:	e3a0161e 	mov	r1, #31457280	; 0x1e00000
 968:	e5801000 	str	r1, [r0]
 96c:	e59f00e8 	ldr	r0, [pc, #232]	; 0xa5c
 970:	ebfffee2 	bl	0x500
 974:	eaffffb4 	b	0x84c
 978:	e59f20cc 	ldr	r2, [pc, #204]	; 0xa4c
 97c:	e3a0161e 	mov	r1, #31457280	; 0x1e00000
 980:	e5821000 	str	r1, [r2]
 984:	eaffffb0 	b	0x84c
 988:	e3a0003e 	mov	r0, #62	; 0x3e
 98c:	ebfffe22 	bl	0x21c
 990:	ebfffe29 	bl	0x23c
 994:	ebfffe20 	bl	0x21c
 998:	e350000d 	cmp	r0, #13
 99c:	059f0078 	ldreq	r0, [pc, #120]	; 0xa1c
 9a0:	0bfffed6 	bleq	0x500
 9a4:	0afffff7 	beq	0x988
 9a8:	e3500061 	cmp	r0, #97	; 0x61
 9ac:	059f0068 	ldreq	r0, [pc, #104]	; 0xa1c
 9b0:	0bfffed2 	bleq	0x500
 9b4:	0affffa4 	beq	0x84c
 9b8:	eafffff4 	b	0x990
 9bc:	e59f205c 	ldr	r2, [pc, #92]	; 0xa20
 9c0:	e2822009 	add	r2, r2, #9
 9c4:	eb000009 	bl	0x9f0
 9c8:	e1a05004 	mov	r5, r4
 9cc:	e59f204c 	ldr	r2, [pc, #76]	; 0xa20
 9d0:	e2822014 	add	r2, r2, #20
 9d4:	eb000005 	bl	0x9f0
 9d8:	e1540005 	cmp	r4, r5
 9dc:	a0444005 	subge	r4, r4, r5
 9e0:	a1a00005 	movge	r0, r5
 9e4:	a1a01004 	movge	r1, r4
 9e8:	abfffe5b 	blge	0x35c
 9ec:	eaffff96 	b	0x84c
 9f0:	e92d400f 	push	{r0, r1, r2, r3, lr}
 9f4:	e3a04000 	mov	r4, #0
 9f8:	e3a0301c 	mov	r3, #28
 9fc:	e5d20000 	ldrb	r0, [r2]
 a00:	ebfffe82 	bl	0x410
 a04:	e1a01310 	lsl	r1, r0, r3
 a08:	e0814004 	add	r4, r1, r4
 a0c:	e2822001 	add	r2, r2, #1
 a10:	e2533004 	subs	r3, r3, #4
 a14:	aafffff8 	bge	0x9fc
 a18:	e8bd800f 	pop	{r0, r1, r2, r3, pc}
 a1c:	80000ba6 	andhi	r0, r0, r6, lsr #23
 a20:	80000c10 	andhi	r0, r0, r0, lsl ip
 a24:	80000bd0 	ldrdhi	r0, [r0], -r0	; <UNPREDICTABLE>
 a28:	80000be1 	andhi	r0, r0, r1, ror #23
 a2c:	80000bbb 			; <UNDEFINED> instruction: 0x80000bbb
 a30:	80000bd9 	ldrdhi	r0, [r0], -r9
 a34:	80000bc5 	andhi	r0, r0, r5, asr #23
 a38:	80000baf 	andhi	r0, r0, pc, lsr #23
 a3c:	80000be8 	andhi	r0, r0, r8, ror #23
 a40:	80000c08 	andhi	r0, r0, r8, lsl #24
 a44:	80000c50 	andhi	r0, r0, r0, asr ip
 a48:	80000b71 	andhi	r0, r0, r1, ror fp
 a4c:	4804c194 	stmdami	r4, {r2, r4, r7, r8, lr, pc}
 a50:	4804c190 	stmdami	r4, {r4, r7, r8, lr, pc}
 a54:	44e3e000 	strbtmi	lr, [r3], #0
 a58:	80000b40 	andhi	r0, r0, r0, asr #22
 a5c:	80000b4a 	andhi	r0, r0, sl, asr #22
 a60:	49003e2d 	stmdbmi	r0, {r0, r2, r3, r5, r9, sl, fp, ip, sp}
 a64:	4d205152 	stfmis	f5, [r0, #-328]!	; 0xfffffeb8
 a68:	2165646f 	cmncs	r5, pc, ror #8
 a6c:	46000d0a 	strmi	r0, [r0], -sl, lsl #26
 a70:	4d205149 	stfmis	f5, [r0, #-292]!	; 0xfffffedc
 a74:	2165646f 	cmncs	r5, pc, ror #8
 a78:	50000d0a 	andpl	r0, r0, sl, lsl #26
 a7c:	65666572 	strbvs	r6, [r6, #-1394]!	; 0xfffffa8e
 a80:	20686374 	rsbcs	r6, r8, r4, ror r3
 a84:	726f6241 	rsbvc	r6, pc, #268435460	; 0x10000004
 a88:	0d0a2174 	stfeqs	f2, [sl, #-464]	; 0xfffffe30
 a8c:	74614400 	strbtvc	r4, [r1], #-1024	; 0xfffffc00
 a90:	62412061 	subvs	r2, r1, #97	; 0x61
 a94:	2174726f 	cmncs	r4, pc, ror #4
 a98:	55000d0a 	strpl	r0, [r0, #-3338]	; 0xfffff2f6
 a9c:	6665646e 	strbtvs	r6, [r5], -lr, ror #8
 aa0:	64656e69 	strbtvs	r6, [r5], #-3689	; 0xfffff197
 aa4:	63784520 	cmnvs	r8, #32, 10	; 0x8000000
 aa8:	69747065 	ldmdbvs	r4!, {r0, r2, r5, r6, ip, sp, lr}^
 aac:	0a216e6f 	beq	0x85c470
 ab0:	6f53000d 	svcvs	0x0053000d
 ab4:	61777466 	cmnvs	r7, r6, ror #8
 ab8:	49206572 	stmdbmi	r0!, {r1, r4, r5, r6, r8, sl, sp, lr}
 abc:	7265746e 	rsbvc	r7, r5, #1845493760	; 0x6e000000
 ac0:	74707572 	ldrbtvc	r7, [r0], #-1394	; 0xfffffa8e
 ac4:	6d754e20 	ldclvs	14, cr4, [r5, #-128]!	; 0xffffff80
 ac8:	3a726562 	bcc	0x1c9a058
 acc:	000d0a20 	andeq	r0, sp, r0, lsr #20
 ad0:	33323130 	teqcc	r2, #48, 2
 ad4:	37363534 			; <UNDEFINED> instruction: 0x37363534
 ad8:	42413938 	submi	r3, r1, #56, 18	; 0xe0000
 adc:	46454443 	strbmi	r4, [r5], -r3, asr #8
 ae0:	2d2d2d00 	stccs	13, cr2, [sp, #-0]
 ae4:	2d2d2d2d 	stccs	13, cr2, [sp, #-180]!	; 0xffffff4c
 ae8:	2d2d2d2d 	stccs	13, cr2, [sp, #-180]!	; 0xffffff4c
 aec:	2d2d2d2d 	stccs	13, cr2, [sp, #-180]!	; 0xffffff4c
 af0:	2d2d2d2d 	stccs	13, cr2, [sp, #-180]!	; 0xffffff4c
 af4:	2d2d2d2d 	stccs	13, cr2, [sp, #-180]!	; 0xffffff4c
 af8:	0d0a2d2d 	stceq	13, cr2, [sl, #-180]	; 0xffffff4c
 afc:	00783000 	rsbseq	r3, r8, r0
 b00:	20000d0a 	andcs	r0, r0, sl, lsl #26
 b04:	20203a20 	eorcs	r3, r0, r0, lsr #20
 b08:	67696400 	strbvs	r6, [r9, -r0, lsl #8]!
 b0c:	20657469 	rsbcs	r7, r5, r9, ror #8
 b10:	6e20736f 	cdpvs	3, 2, cr7, cr0, cr15, {3}
 b14:	72656d75 	rsbvc	r6, r5, #7488	; 0x1d40
 b18:	0a3a736f 	beq	0xe9d8dc
 b1c:	0000000d 	andeq	r0, r0, sp
 b20:	6c6c6568 	cfstr64vs	mvdx6, [ip], #-416	; 0xfffffe60
 b24:	726f776f 	rsbvc	r7, pc, #29097984	; 0x1bc0000
 b28:	0d0a646c 	cfstrseq	mvf6, [sl, #-432]	; 0xfffffe50
 b2c:	00000000 	andeq	r0, r0, r0
 b30:	00000d0a 	andeq	r0, r0, sl, lsl #26
	...
 b40:	6c6c6568 	cfstr64vs	mvdx6, [ip], #-416	; 0xfffffe60
 b44:	0a646c72 	beq	0x191bd14
 b48:	656c000d 	strbvs	r0, [ip, #-13]!
 b4c:	666f2064 	strbtvs	r2, [pc], -r4, rrx
 b50:	73752066 	cmnvc	r5, #102	; 0x66
 b54:	752d3072 	strvc	r3, [sp, #-114]!	; 0xffffff8e
 b58:	0a337273 	beq	0xcdd52c
 b5c:	656c000d 	strbvs	r0, [ip, #-13]!
 b60:	6e6f2064 	cdpvs	0, 6, cr2, cr15, cr4, {3}
 b64:	72737520 	rsbsvc	r7, r3, #32, 10	; 0x8000000
 b68:	73752d30 	cmnvc	r5, #48, 26	; 0xc00
 b6c:	0d0a3372 	stceq	3, cr3, [sl, #-456]	; 0xfffffe38
 b70:	003e2d00 	eorseq	r2, lr, r0, lsl #26
 b74:	3130003e 	teqcc	r0, lr, lsr r0
 b78:	35343332 	ldrcc	r3, [r4, #-818]!	; 0xfffffcce
 b7c:	39383736 	ldmdbcc	r8!, {r1, r2, r4, r5, r8, r9, sl, ip, sp}
 b80:	44434241 	strbmi	r4, [r3], #-577	; 0xfffffdbf
 b84:	2d004645 	stccs	6, cr4, [r0, #-276]	; 0xfffffeec
 b88:	2d2d2d2d 	stccs	13, cr2, [sp, #-180]!	; 0xffffff4c
 b8c:	2d2d2d2d 	stccs	13, cr2, [sp, #-180]!	; 0xffffff4c
 b90:	2d2d2d2d 	stccs	13, cr2, [sp, #-180]!	; 0xffffff4c
 b94:	2d2d2d2d 	stccs	13, cr2, [sp, #-180]!	; 0xffffff4c
 b98:	2d2d2d2d 	stccs	13, cr2, [sp, #-180]!	; 0xffffff4c
 b9c:	2d2d2d2d 	stccs	13, cr2, [sp, #-180]!	; 0xffffff4c
 ba0:	30000d0a 	andcc	r0, r0, sl, lsl #26
 ba4:	0d0a0078 	stceq	0, cr0, [sl, #-480]	; 0xfffffe20
 ba8:	3a202000 	bcc	0x808bb0
 bac:	63002020 	movwvs	r2, #32
 bb0:	61746e6f 	cmnvs	r4, pc, ror #28
 bb4:	30726f64 	rsbscc	r6, r2, r4, ror #30
 bb8:	73003531 	movwvc	r3, #1329	; 0x531
 bbc:	65757165 	ldrbvs	r7, [r5, #-357]!	; 0xfffffe9b
 bc0:	6169636e 	cmnvs	r9, lr, ror #6
 bc4:	6c656800 	stclvs	8, cr6, [r5], #-0
 bc8:	6f776f6c 	svcvs	0x00776f6c
 bcc:	00646c72 	rsbeq	r6, r4, r2, ror ip
 bd0:	20746573 	rsbscs	r6, r4, r3, ror r5
 bd4:	656d6974 	strbvs	r6, [sp, #-2420]!	; 0xfffff68c
 bd8:	64656c00 	strbtvs	r6, [r5], #-3072	; 0xfffff400
 bdc:	66666f20 	strbtvs	r6, [r6], -r0, lsr #30
 be0:	64656c00 	strbtvs	r6, [r5], #-3072	; 0xfffff400
 be4:	006e6f20 	rsbeq	r6, lr, r0, lsr #30
 be8:	656d6974 	strbvs	r6, [sp, #-2420]!	; 0xfffff68c
 bec:	63616300 	cmnvs	r1, #0, 6
 bf0:	67006568 	strvs	r6, [r0, -r8, ror #10]
 bf4:	006f746f 	rsbeq	r7, pc, pc, ror #8
 bf8:	65736572 	ldrbvs	r6, [r3, #-1394]!	; 0xfffffa8e
 bfc:	6c620074 	stclvs	0, cr0, [r2], #-464	; 0xfffffe30
 c00:	006b6e69 	rsbeq	r6, fp, r9, ror #28
 c04:	0064656c 	rsbeq	r6, r4, ip, ror #10
 c08:	6f6d656d 	svcvs	0x006d656d
 c0c:	00006972 	andeq	r6, r0, r2, ror r9
	...
